target datalayout = "e-m:e-p270:32:32-p271:32:32-p272:64:64-i64:64-i128:128-f80:128-n8:16:32:64-S128"
target triple = "x86_64-pc-linux-gnu"

; Function Attrs: inlinehint mustprogress nounwind uwtable
define linkonce_odr noundef ptr @_ZN6icu_7724CollationElementIterator22fromUCollationElementsEP18UCollationElements(ptr noundef %0) #4 comdat align 2 {
  %2 = alloca ptr, align 8
  store ptr %0, ptr %2, align 8, !tbaa !39
  %3 = load ptr, ptr %2, align 8, !tbaa !39
  ret ptr %3
}

; Function Attrs: inlinehint mustprogress nounwind uwtable
define internal noundef signext i8 @_ZL9U_FAILURE10UErrorCode(i32 noundef %0) #4 {
  %2 = alloca i32, align 4
  store i32 %0, ptr %2, align 4, !tbaa !16
  %3 = load i32, ptr %2, align 4, !tbaa !16
  %4 = icmp sgt i32 %3, 0
  %5 = zext i1 %4 to i8
  ret i8 %5
}

; Function Attrs: mustprogress uwtable
define void @ucol_setOffset_77(ptr noundef %0, i32 noundef %1, ptr noundef %2) #3 {
  %4 = alloca ptr, align 8
  %5 = alloca i32, align 4
  %6 = alloca ptr, align 8
  store ptr %0, ptr %4, align 8, !tbaa !39
  store i32 %1, ptr %5, align 4, !tbaa !14
  store ptr %2, ptr %6, align 8, !tbaa !15
  %7 = load ptr, ptr %6, align 8, !tbaa !15
  %8 = load i32, ptr %7, align 4, !tbaa !16
  %9 = call noundef signext i8 @_ZL9U_FAILURE10UErrorCode(i32 noundef %8)
  %10 = icmp ne i8 %9, 0
  br i1 %10, label %11, label %12

11:                                               ; preds = %3
  br label %17

12:                                               ; preds = %3
  %13 = load ptr, ptr %4, align 8, !tbaa !39
  %14 = call noundef ptr @_ZN6icu_7724CollationElementIterator22fromUCollationElementsEP18UCollationElements(ptr noundef %13)
  %15 = load i32, ptr %5, align 4, !tbaa !14
  %16 = load ptr, ptr %6, align 8, !tbaa !15
  call void @_ZN6icu_7724CollationElementIterator9setOffsetEiR10UErrorCode(ptr noundef nonnull align 8 dereferenceable(104) %14, i32 noundef %15, ptr noundef nonnull align 4 dereferenceable(4) %16)
  br label %17

17:                                               ; preds = %12, %11
  ret void
}