; Function Attrs: mustprogress uwtable
define void @ucol_setOffset_77(ptr noundef %0, i32 noundef %1, ptr noundef %2) local_unnamed_addr #6 {
  %4 = load i32, ptr %2, align 4, !tbaa !12
  %5 = icmp slt i32 %4, 1
  br i1 %5, label %6, label %7

6:                                                ; preds = %3
  tail call void @_ZN6icu_7724CollationElementIterator9setOffsetEiR10UErrorCode(ptr noundef nonnull align 8 dereferenceable(104) %0, i32 noundef %1, ptr noundef nonnull align 4 dereferenceable(4) %2)
  br label %7

7:                                                ; preds = %3, %6
  ret void
}